; Function Attrs: mustprogress uwtable
define internal fastcc void @_ZN7rocksdb12_GLOBAL__N_118ChecksumInt32ToHexB5cxx11ERKj(ptr noalias align 8 %agg.result, ptr nocapture noundef nonnull readonly align 4 dereferenceable(4) %checksum_value) unnamed_addr #3 personality ptr @__gxx_personality_v0 {
entry:
  %ref.tmp.i = alloca %"class.rocksdb::Slice", align 8
  %value.addr.i = alloca i32, align 4
  %checksum_str = alloca %"class.std::__cxx11::basic_string", align 8
  call void @_ZNSt7__cxx1112basic_stringIcSt11char_traitsIcESaIcEEC1Ev(ptr noundef nonnull align 8 dereferenceable(32) %checksum_str) #33
  %0 = load i32, ptr %checksum_value, align 4
  %1 = call noundef i32 @llvm.bswap.i32(i32 %0)
  call void @llvm.lifetime.start.p0(i64 4, ptr nonnull %value.addr.i)
  store i32 %1, ptr %value.addr.i, align 4
  %call.i1 = invoke noundef nonnull align 8 dereferenceable(32) ptr @_ZNSt7__cxx1112basic_stringIcSt11char_traitsIcESaIcEE6appendEPKcm(ptr noundef nonnull align 8 dereferenceable(32) %checksum_str, ptr noundef nonnull %value.addr.i, i64 noundef 4)
          to label %invoke.cont1 unwind label %lpad

invoke.cont1:                                     ; preds = %entry
  call void @llvm.lifetime.end.p0(i64 4, ptr nonnull %value.addr.i)
  call void @llvm.lifetime.start.p0(i64 16, ptr nonnull %ref.tmp.i)
  %call.i.i = call noundef ptr @_ZNKSt7__cxx1112basic_stringIcSt11char_traitsIcESaIcEE4dataEv(ptr noundef nonnull align 8 dereferenceable(32) %checksum_str) #33, !noalias !312
  store ptr %call.i.i, ptr %ref.tmp.i, align 8, !noalias !312
  %size_.i.i = getelementptr inbounds i8, ptr %ref.tmp.i, i64 8
  %call2.i.i = call noundef i64 @_ZNKSt7__cxx1112basic_stringIcSt11char_traitsIcESaIcEE4sizeEv(ptr noundef nonnull align 8 dereferenceable(32) %checksum_str) #33, !noalias !312
  store i64 %call2.i.i, ptr %size_.i.i, align 8, !noalias !312
  invoke void @_ZNK7rocksdb5Slice8ToStringB5cxx11Eb(ptr sret(%"class.std::__cxx11::basic_string") align 8 %agg.result, ptr noundef nonnull align 8 dereferenceable(16) %ref.tmp.i, i1 noundef zeroext true)
          to label %invoke.cont2 unwind label %lpad

invoke.cont2:                                     ; preds = %invoke.cont1
  call void @llvm.lifetime.end.p0(i64 16, ptr nonnull %ref.tmp.i)
  call void @_ZNSt7__cxx1112basic_stringIcSt11char_traitsIcESaIcEED1Ev(ptr noundef nonnull align 8 dereferenceable(32) %checksum_str) #33
  ret void

lpad:                                             ; preds = %invoke.cont1, %entry
  %2 = landingpad { ptr, i32 }
          cleanup
  call void @_ZNSt7__cxx1112basic_stringIcSt11char_traitsIcESaIcEED1Ev(ptr noundef nonnull align 8 dereferenceable(32) %checksum_str) #33
  resume { ptr, i32 } %2
}